Archive member included because of file (symbol)

/home/baxelrod/ARM-H/avr8-gnu-toolchain-linux_x86/bin/../lib/gcc/avr/4.6.2/avrxmega4/libgcc.a(_exit.o)
                              /home/baxelrod/ARM-H/avr8-gnu-toolchain-linux_x86/bin/../lib/gcc/avr/4.6.2/../../../../avr/lib/avrxmega4/crtx64a3.o (exit)
/home/baxelrod/ARM-H/avr8-gnu-toolchain-linux_x86/bin/../lib/gcc/avr/4.6.2/avrxmega4/libgcc.a(_copy_data.o)
                              xboot.o (__do_copy_data)
/home/baxelrod/ARM-H/avr8-gnu-toolchain-linux_x86/bin/../lib/gcc/avr/4.6.2/avrxmega4/libgcc.a(_clear_bss.o)
                              xboot.o (__do_clear_bss)

Allocating common symbols
Common symbol       size              file

comm_mode           0x1               xboot.o
protected           0x1               xboot.o
buffer              0x100             xboot.o

Discarded input sections

 .bss           0x00000000        0x0 /home/baxelrod/ARM-H/avr8-gnu-toolchain-linux_x86/bin/../lib/gcc/avr/4.6.2/../../../../avr/lib/avrxmega4/crtx64a3.o
 .text          0x00000000        0x0 xboot.o
 .bss           0x00000000        0x0 xboot.o
 .text          0x00000000        0x0 flash.o
 .bss           0x00000000        0x0 flash.o
 .text          0x00000000        0x0 eeprom_driver.o
 .bss           0x00000000        0x0 eeprom_driver.o
 .text.EEPROM_erase_page
                0x00000000       0x22 eeprom_driver.o
 .text          0x00000000        0x0 uart.o
 .bss           0x00000000        0x0 uart.o
 .text          0x00000000        0x0 i2c.o
 .bss           0x00000000        0x0 i2c.o
 .text.i2c_init
                0x00000000       0x12 i2c.o
 .text.i2c_deinit
                0x00000000        0xc i2c.o
 .text          0x00000000        0x0 fifo.o
 .bss           0x00000000        0x0 fifo.o
 .text.fifo_init
                0x00000000       0x10 fifo.o
 .text.fifo_deinit
                0x00000000       0x16 fifo.o
 .text.fifo_cur_char
                0x00000000       0x34 fifo.o
 .text.fifo_send_char
                0x00000000       0x4a fifo.o
 .text.fifo_send_char_blocking
                0x00000000       0x52 fifo.o
 .text          0x00000000        0x0 watchdog.o
 .bss           0x00000000        0x0 watchdog.o
 .text.WDT_EnableAndSetTimeout
                0x00000000       0x14 watchdog.o
 .text.WDT_Disable
                0x00000000       0x12 watchdog.o
 .text          0x00000000        0x0 api.o
 .bss           0x00000000        0x0 api.o
 .bss           0x00000000        0x0 sp_driver.o
 .text          0x00000000        0x0 /home/baxelrod/ARM-H/avr8-gnu-toolchain-linux_x86/bin/../lib/gcc/avr/4.6.2/avrxmega4/libgcc.a(_exit.o)
 .bss           0x00000000        0x0 /home/baxelrod/ARM-H/avr8-gnu-toolchain-linux_x86/bin/../lib/gcc/avr/4.6.2/avrxmega4/libgcc.a(_exit.o)
 .text.libgcc   0x00000000        0x0 /home/baxelrod/ARM-H/avr8-gnu-toolchain-linux_x86/bin/../lib/gcc/avr/4.6.2/avrxmega4/libgcc.a(_exit.o)
 .text          0x00000000        0x0 /home/baxelrod/ARM-H/avr8-gnu-toolchain-linux_x86/bin/../lib/gcc/avr/4.6.2/avrxmega4/libgcc.a(_copy_data.o)
 .bss           0x00000000        0x0 /home/baxelrod/ARM-H/avr8-gnu-toolchain-linux_x86/bin/../lib/gcc/avr/4.6.2/avrxmega4/libgcc.a(_copy_data.o)
 .text.libgcc   0x00000000        0x0 /home/baxelrod/ARM-H/avr8-gnu-toolchain-linux_x86/bin/../lib/gcc/avr/4.6.2/avrxmega4/libgcc.a(_copy_data.o)
 .text          0x00000000        0x0 /home/baxelrod/ARM-H/avr8-gnu-toolchain-linux_x86/bin/../lib/gcc/avr/4.6.2/avrxmega4/libgcc.a(_clear_bss.o)
 .bss           0x00000000        0x0 /home/baxelrod/ARM-H/avr8-gnu-toolchain-linux_x86/bin/../lib/gcc/avr/4.6.2/avrxmega4/libgcc.a(_clear_bss.o)
 .text.libgcc   0x00000000        0x0 /home/baxelrod/ARM-H/avr8-gnu-toolchain-linux_x86/bin/../lib/gcc/avr/4.6.2/avrxmega4/libgcc.a(_clear_bss.o)

Memory Configuration

Name             Origin             Length             Attributes
text             0x00000000         0x00100000         xr
data             0x00802000         0x0000ffa0         rw !x
eeprom           0x00810000         0x00010000         rw !x
fuse             0x00820000         0x00000400         rw !x
lock             0x00830000         0x00000400         rw !x
signature        0x00840000         0x00000400         rw !x
*default*        0x00000000         0xffffffff

Linker script and memory map

LOAD /home/baxelrod/ARM-H/avr8-gnu-toolchain-linux_x86/bin/../lib/gcc/avr/4.6.2/../../../../avr/lib/avrxmega4/crtx64a3.o
LOAD xboot.o
LOAD flash.o
LOAD eeprom_driver.o
LOAD uart.o
LOAD i2c.o
LOAD fifo.o
LOAD watchdog.o
LOAD api.o
LOAD sp_driver.o
LOAD /home/baxelrod/ARM-H/avr8-gnu-toolchain-linux_x86/bin/../lib/gcc/avr/4.6.2/../../../../avr/lib/avrxmega4/libm.a
Address of section .text set to 0x10000
LOAD /home/baxelrod/ARM-H/avr8-gnu-toolchain-linux_x86/bin/../lib/gcc/avr/4.6.2/avrxmega4/libgcc.a
LOAD /home/baxelrod/ARM-H/avr8-gnu-toolchain-linux_x86/bin/../lib/gcc/avr/4.6.2/../../../../avr/lib/avrxmega4/libc.a
LOAD /home/baxelrod/ARM-H/avr8-gnu-toolchain-linux_x86/bin/../lib/gcc/avr/4.6.2/avrxmega4/libgcc.a

.hash
 *(.hash)

.dynsym
 *(.dynsym)

.dynstr
 *(.dynstr)

.gnu.version
 *(.gnu.version)

.gnu.version_d
 *(.gnu.version_d)

.gnu.version_r
 *(.gnu.version_r)

.rel.init
 *(.rel.init)

.rela.init
 *(.rela.init)

.rel.text
 *(.rel.text)
 *(.rel.text.*)
 *(.rel.gnu.linkonce.t*)

.rela.text
 *(.rela.text)
 *(.rela.text.*)
 *(.rela.gnu.linkonce.t*)

.rel.fini
 *(.rel.fini)

.rela.fini
 *(.rela.fini)

.rel.rodata
 *(.rel.rodata)
 *(.rel.rodata.*)
 *(.rel.gnu.linkonce.r*)

.rela.rodata
 *(.rela.rodata)
 *(.rela.rodata.*)
 *(.rela.gnu.linkonce.r*)

.rel.data
 *(.rel.data)
 *(.rel.data.*)
 *(.rel.gnu.linkonce.d*)

.rela.data
 *(.rela.data)
 *(.rela.data.*)
 *(.rela.gnu.linkonce.d*)

.rel.ctors
 *(.rel.ctors)

.rela.ctors
 *(.rela.ctors)

.rel.dtors
 *(.rel.dtors)

.rela.dtors
 *(.rela.dtors)

.rel.got
 *(.rel.got)

.rela.got
 *(.rela.got)

.rel.bss
 *(.rel.bss)

.rela.bss
 *(.rela.bss)

.rel.plt
 *(.rel.plt)

.rela.plt
 *(.rela.plt)

.text           0x00010000      0xfd0
 *(.vectors)
 .vectors       0x00010000      0x1e8 /home/baxelrod/ARM-H/avr8-gnu-toolchain-linux_x86/bin/../lib/gcc/avr/4.6.2/../../../../avr/lib/avrxmega4/crtx64a3.o
                0x00010000                __vectors
                0x00010000                __vector_default
 .vectors       0x000101e8       0x12 api.o
                0x000101e8                api_jump_table
 *(.vectors)
 *(.progmem.gcc*)
 *(.progmem*)
                0x000101fa                . = ALIGN (0x2)
                0x000101fa                __trampolines_start = .
 *(.trampolines)
 .trampolines   0x000101fa        0x0 linker stubs
 *(.trampolines*)
                0x000101fa                __trampolines_end = .
 *(.jumptables)
 *(.jumptables*)
 *(.lowtext)
 *(.lowtext*)
                0x000101fa                __ctors_start = .
 *(.ctors)
                0x000101fa                __ctors_end = .
                0x000101fa                __dtors_start = .
 *(.dtors)
                0x000101fa                __dtors_end = .
 SORT(*)(.ctors)
 SORT(*)(.dtors)
 *(.init0)
 .init0         0x000101fa        0x0 /home/baxelrod/ARM-H/avr8-gnu-toolchain-linux_x86/bin/../lib/gcc/avr/4.6.2/../../../../avr/lib/avrxmega4/crtx64a3.o
                0x000101fa                __init
 *(.init0)
 *(.init1)
 *(.init1)
 *(.init2)
 .init2         0x000101fa        0xc /home/baxelrod/ARM-H/avr8-gnu-toolchain-linux_x86/bin/../lib/gcc/avr/4.6.2/../../../../avr/lib/avrxmega4/crtx64a3.o
 *(.init2)
 *(.init3)
 *(.init3)
 *(.init4)
 .init4         0x00010206       0x1c /home/baxelrod/ARM-H/avr8-gnu-toolchain-linux_x86/bin/../lib/gcc/avr/4.6.2/avrxmega4/libgcc.a(_copy_data.o)
                0x00010206                __do_copy_data
 .init4         0x00010222       0x10 /home/baxelrod/ARM-H/avr8-gnu-toolchain-linux_x86/bin/../lib/gcc/avr/4.6.2/avrxmega4/libgcc.a(_clear_bss.o)
                0x00010222                __do_clear_bss
 *(.init4)
 *(.init5)
 *(.init5)
 *(.init6)
 *(.init6)
 *(.init7)
 *(.init7)
 *(.init8)
 *(.init8)
 *(.init9)
 .init9         0x00010232        0x8 /home/baxelrod/ARM-H/avr8-gnu-toolchain-linux_x86/bin/../lib/gcc/avr/4.6.2/../../../../avr/lib/avrxmega4/crtx64a3.o
 *(.init9)
 *(.text)
 .text          0x0001023a        0x4 /home/baxelrod/ARM-H/avr8-gnu-toolchain-linux_x86/bin/../lib/gcc/avr/4.6.2/../../../../avr/lib/avrxmega4/crtx64a3.o
                0x0001023a                __vector_38
                0x0001023a                __vector_104
                0x0001023a                __vector_22
                0x0001023a                __vector_63
                0x0001023a                __vector_28
                0x0001023a                __vector_67
                0x0001023a                __vector_1
                0x0001023a                __vector_119
                0x0001023a                __vector_32
                0x0001023a                __vector_75
                0x0001023a                __vector_71
                0x0001023a                __vector_91
                0x0001023a                __vector_34
                0x0001023a                __vector_62
                0x0001023a                __vector_77
                0x0001023a                __vector_102
                0x0001023a                __vector_24
                0x0001023a                __vector_12
                0x0001023a                __vector_55
                0x0001023a                __vector_69
                0x0001023a                __vector_81
                0x0001023a                __vector_90
                0x0001023a                __vector_46
                0x0001023a                __bad_interrupt
                0x0001023a                __vector_72
                0x0001023a                __vector_114
                0x0001023a                __vector_6
                0x0001023a                __vector_110
                0x0001023a                __vector_31
                0x0001023a                __vector_92
                0x0001023a                __vector_35
                0x0001023a                __vector_78
                0x0001023a                __vector_74
                0x0001023a                __vector_117
                0x0001023a                __vector_39
                0x0001023a                __vector_107
                0x0001023a                __vector_3
                0x0001023a                __vector_105
                0x0001023a                __vector_98
                0x0001023a                __vector_23
                0x0001023a                __vector_68
                0x0001023a                __vector_30
                0x0001023a                __vector_73
                0x0001023a                __vector_45
                0x0001023a                __vector_25
                0x0001023a                __vector_93
                0x0001023a                __vector_61
                0x0001023a                __vector_11
                0x0001023a                __vector_54
                0x0001023a                __vector_99
                0x0001023a                __vector_13
                0x0001023a                __vector_17
                0x0001023a                __vector_19
                0x0001023a                __vector_56
                0x0001023a                __vector_7
                0x0001023a                __vector_49
                0x0001023a                __vector_41
                0x0001023a                __vector_86
                0x0001023a                __vector_100
                0x0001023a                __vector_101
                0x0001023a                __vector_64
                0x0001023a                __vector_88
                0x0001023a                __vector_109
                0x0001023a                __vector_43
                0x0001023a                __vector_27
                0x0001023a                __vector_5
                0x0001023a                __vector_113
                0x0001023a                __vector_33
                0x0001023a                __vector_76
                0x0001023a                __vector_115
                0x0001023a                __vector_47
                0x0001023a                __vector_52
                0x0001023a                __vector_37
                0x0001023a                __vector_95
                0x0001023a                __vector_103
                0x0001023a                __vector_96
                0x0001023a                __vector_89
                0x0001023a                __vector_108
                0x0001023a                __vector_4
                0x0001023a                __vector_44
                0x0001023a                __vector_82
                0x0001023a                __vector_106
                0x0001023a                __vector_118
                0x0001023a                __vector_51
                0x0001023a                __vector_9
                0x0001023a                __vector_2
                0x0001023a                __vector_21
                0x0001023a                __vector_15
                0x0001023a                __vector_66
                0x0001023a                __vector_36
                0x0001023a                __vector_79
                0x0001023a                __vector_58
                0x0001023a                __vector_70
                0x0001023a                __vector_83
                0x0001023a                __vector_29
                0x0001023a                __vector_60
                0x0001023a                __vector_121
                0x0001023a                __vector_40
                0x0001023a                __vector_85
                0x0001023a                __vector_94
                0x0001023a                __vector_8
                0x0001023a                __vector_26
                0x0001023a                __vector_48
                0x0001023a                __vector_116
                0x0001023a                __vector_112
                0x0001023a                __vector_111
                0x0001023a                __vector_80
                0x0001023a                __vector_14
                0x0001023a                __vector_84
                0x0001023a                __vector_57
                0x0001023a                __vector_53
                0x0001023a                __vector_10
                0x0001023a                __vector_50
                0x0001023a                __vector_16
                0x0001023a                __vector_59
                0x0001023a                __vector_18
                0x0001023a                __vector_97
                0x0001023a                __vector_20
                0x0001023a                __vector_42
                0x0001023a                __vector_87
                0x0001023a                __vector_65
                0x0001023a                __vector_120
 .text          0x0001023e      0x16a sp_driver.o
                0x0001023e                SP_ReadByte
                0x0001024a                SP_ReadWord
                0x00010258                SP_ReadCalibrationByte
                0x0001025c                SP_ReadUserSignatureByte
                0x00010260                SP_ReadFuseByte
                0x00010276                SP_WriteLockBits
                0x0001027e                SP_ReadLockBits
                0x00010284                SP_EraseUserSignatureRow
                0x0001028c                SP_WriteUserSignatureRow
                0x00010294                SP_EraseApplicationSection
                0x000102a2                SP_EraseApplicationPage
                0x000102ae                SP_LoadFlashWord
                0x000102b8                SP_LoadFlashPage
                0x000102de                SP_ReadFlashPage
                0x00010300                SP_WriteApplicationPage
                0x0001030c                SP_EraseWriteApplicationPage
                0x00010318                SP_EraseFlashBuffer
                0x00010320                SP_EraseBootPage
                0x0001032c                SP_WriteBootPage
                0x00010338                SP_EraseWriteBootPage
                0x00010344                SP_ApplicationCRC
                0x00010348                SP_BootCRC
                0x0001034c                SP_LockSPM
                0x0001035a                SP_WaitForSPM
                0x000103a8                . = ALIGN (0x2)
 *(.text.*)
 .text._crc16_update
                0x000103a8       0x30 xboot.o
 .text.get_char
                0x000103d8       0x1e xboot.o
                0x000103d8                get_char
 .text.send_char
                0x000103f6       0x22 xboot.o
                0x000103f6                send_char
 .text.get_2bytes
                0x00010418       0x1a xboot.o
                0x00010418                get_2bytes
 .text.clear_buffer
                0x00010432       0x12 xboot.o
                0x00010432                clear_buffer
 .text.BlockLoad
                0x00010444       0xf8 xboot.o
                0x00010444                BlockLoad
 .text.BlockRead
                0x0001053c      0x14e xboot.o
                0x0001053c                BlockRead
 .text.crc16_block
                0x0001068a       0x94 xboot.o
                0x0001068a                crc16_block
 .text.install_firmware
                0x0001071e      0x11a xboot.o
                0x0001071e                install_firmware
 .text.startup.main
                0x00010838      0x41c xboot.o
                0x00010838                main
 .text.Flash_ProgramPage
                0x00010c54       0x46 flash.o
                0x00010c54                Flash_ProgramPage
 .text.NVM_EXEC
                0x00010c9a       0x12 eeprom_driver.o
 .text.wait_for_nvm
                0x00010cac        0xa eeprom_driver.o
                0x00010cac                wait_for_nvm
 .text.flush_buffer
                0x00010cb6       0x1a eeprom_driver.o
                0x00010cb6                flush_buffer
 .text.EEPROM_read_byte
                0x00010cd0       0x42 eeprom_driver.o
                0x00010cd0                EEPROM_read_byte
 .text.EEPROM_write_byte
                0x00010d12       0x42 eeprom_driver.o
                0x00010d12                EEPROM_write_byte
 .text.EEPROM_read_block
                0x00010d54       0x76 eeprom_driver.o
                0x00010d54                EEPROM_read_block
 .text.EEPROM_write_block
                0x00010dca       0xca eeprom_driver.o
                0x00010dca                EEPROM_write_block
 .text.EEPROM_erase_all
                0x00010e94       0x12 eeprom_driver.o
                0x00010e94                EEPROM_erase_all
 .text.uart_init
                0x00010ea6       0x1a uart.o
                0x00010ea6                uart_init
 .text.uart_deinit
                0x00010ec0       0x14 uart.o
                0x00010ec0                uart_deinit
 .text.xboot_get_version
                0x00010ed4        0xe api.o
                0x00010ed4                xboot_get_version
 .text.xboot_spm_wrapper
                0x00010ee2        0x4 api.o
                0x00010ee2                xboot_spm_wrapper
 .text.xboot_app_temp_erase
                0x00010ee6       0x5a api.o
                0x00010ee6                xboot_app_temp_erase
 .text.xboot_erase_application_page
                0x00010f40       0x2e api.o
                0x00010f40                xboot_erase_application_page
 .text.xboot_write_user_signature_row
                0x00010f6e       0x26 api.o
                0x00010f6e                xboot_write_user_signature_row
 .text.xboot_write_application_page
                0x00010f94       0x2a api.o
                0x00010f94                xboot_write_application_page
 .text.xboot_app_temp_write_page
                0x00010fbe        0xe api.o
                0x00010fbe                xboot_app_temp_write_page
                0x00010fcc                . = ALIGN (0x2)
 *(.fini9)
 .fini9         0x00010fcc        0x0 /home/baxelrod/ARM-H/avr8-gnu-toolchain-linux_x86/bin/../lib/gcc/avr/4.6.2/avrxmega4/libgcc.a(_exit.o)
                0x00010fcc                exit
                0x00010fcc                _exit
 *(.fini9)
 *(.fini8)
 *(.fini8)
 *(.fini7)
 *(.fini7)
 *(.fini6)
 *(.fini6)
 *(.fini5)
 *(.fini5)
 *(.fini4)
 *(.fini4)
 *(.fini3)
 *(.fini3)
 *(.fini2)
 *(.fini2)
 *(.fini1)
 *(.fini1)
 *(.fini0)
 .fini0         0x00010fcc        0x4 /home/baxelrod/ARM-H/avr8-gnu-toolchain-linux_x86/bin/../lib/gcc/avr/4.6.2/avrxmega4/libgcc.a(_exit.o)
 *(.fini0)
                0x00010fd0                _etext = .

.data           0x00802000        0x0 load address 0x00010fd0
                0x00802000                PROVIDE (__data_start, .)
 *(.data)
 .data          0x00802000        0x0 /home/baxelrod/ARM-H/avr8-gnu-toolchain-linux_x86/bin/../lib/gcc/avr/4.6.2/../../../../avr/lib/avrxmega4/crtx64a3.o
 .data          0x00802000        0x0 xboot.o
 .data          0x00802000        0x0 flash.o
 .data          0x00802000        0x0 eeprom_driver.o
 .data          0x00802000        0x0 uart.o
 .data          0x00802000        0x0 i2c.o
 .data          0x00802000        0x0 fifo.o
 .data          0x00802000        0x0 watchdog.o
 .data          0x00802000        0x0 api.o
 .data          0x00802000        0x0 sp_driver.o
 .data          0x00802000        0x0 /home/baxelrod/ARM-H/avr8-gnu-toolchain-linux_x86/bin/../lib/gcc/avr/4.6.2/avrxmega4/libgcc.a(_exit.o)
 .data          0x00802000        0x0 /home/baxelrod/ARM-H/avr8-gnu-toolchain-linux_x86/bin/../lib/gcc/avr/4.6.2/avrxmega4/libgcc.a(_copy_data.o)
 .data          0x00802000        0x0 /home/baxelrod/ARM-H/avr8-gnu-toolchain-linux_x86/bin/../lib/gcc/avr/4.6.2/avrxmega4/libgcc.a(_clear_bss.o)
 *(.data*)
 *(.rodata)
 *(.rodata*)
 *(.gnu.linkonce.d*)
                0x00802000                . = ALIGN (0x2)
                0x00802000                _edata = .
                0x00802000                PROVIDE (__data_end, .)

.bss            0x00802000      0x102
                0x00802000                PROVIDE (__bss_start, .)
 *(.bss)
 *(.bss*)
 *(COMMON)
 COMMON         0x00802000      0x102 xboot.o
                0x00802000                comm_mode
                0x00802001                protected
                0x00802002                buffer
                0x00802102                PROVIDE (__bss_end, .)
                0x00010fd0                __data_load_start = LOADADDR (.data)
                0x00010fd0                __data_load_end = (__data_load_start + SIZEOF (.data))

.noinit         0x00802102        0x0
                0x00802102                PROVIDE (__noinit_start, .)
 *(.noinit*)
                0x00802102                PROVIDE (__noinit_end, .)
                0x00802102                _end = .
                0x00802102                PROVIDE (__heap_start, .)

.eeprom         0x00810000        0x0
 *(.eeprom*)
                0x00810000                __eeprom_end = .

.fuse
 *(.fuse)
 *(.lfuse)
 *(.hfuse)
 *(.efuse)

.lock
 *(.lock*)

.signature
 *(.signature*)

.stab           0x00000000     0x4f98
 *(.stab)
 .stab          0x00000000      0x6cc /home/baxelrod/ARM-H/avr8-gnu-toolchain-linux_x86/bin/../lib/gcc/avr/4.6.2/../../../../avr/lib/avrxmega4/crtx64a3.o
 .stab          0x000006cc     0x23ac xboot.o
                               0x23b8 (size before relaxing)
 .stab          0x00002a78      0x390 flash.o
                               0x14c4 (size before relaxing)
 .stab          0x00002e08      0x774 eeprom_driver.o
                               0x1914 (size before relaxing)
 .stab          0x0000357c      0x39c uart.o
                               0x14d0 (size before relaxing)
 .stab          0x00003918      0x2e8 i2c.o
                               0x14c4 (size before relaxing)
 .stab          0x00003c00      0x2e8 fifo.o
                               0x162c (size before relaxing)
 .stab          0x00003ee8      0x2e8 watchdog.o
                               0x14dc (size before relaxing)
 .stab          0x000041d0      0x6b4 api.o
                               0x17e8 (size before relaxing)
 .stab          0x00004884      0x714 sp_driver.o
                                0x720 (size before relaxing)

.stabstr        0x00000000     0xc12c
 *(.stabstr)
 .stabstr       0x00000000     0xc12c /home/baxelrod/ARM-H/avr8-gnu-toolchain-linux_x86/bin/../lib/gcc/avr/4.6.2/../../../../avr/lib/avrxmega4/crtx64a3.o

.stab.excl
 *(.stab.excl)

.stab.exclstr
 *(.stab.exclstr)

.stab.index
 *(.stab.index)

.stab.indexstr
 *(.stab.indexstr)

.comment
 *(.comment)

.debug
 *(.debug)

.line
 *(.line)

.debug_srcinfo
 *(.debug_srcinfo)

.debug_sfnames
 *(.debug_sfnames)

.debug_aranges
 *(.debug_aranges)

.debug_pubnames
 *(.debug_pubnames)

.debug_info
 *(.debug_info)
 *(.gnu.linkonce.wi.*)

.debug_abbrev
 *(.debug_abbrev)

.debug_line
 *(.debug_line)

.debug_frame
 *(.debug_frame)

.debug_str
 *(.debug_str)

.debug_loc
 *(.debug_loc)

.debug_macinfo
 *(.debug_macinfo)
OUTPUT(xboot.elf elf32-avr)
LOAD linker stubs

Cross Reference Table

Symbol                                            File
BlockLoad                                         xboot.o
BlockRead                                         xboot.o
EEPROM_erase_all                                  eeprom_driver.o
                                                  xboot.o
EEPROM_erase_page                                 eeprom_driver.o
EEPROM_read_block                                 eeprom_driver.o
                                                  xboot.o
EEPROM_read_byte                                  eeprom_driver.o
                                                  xboot.o
EEPROM_write_block                                eeprom_driver.o
                                                  xboot.o
EEPROM_write_byte                                 eeprom_driver.o
                                                  xboot.o
Flash_ProgramPage                                 flash.o
                                                  api.o
                                                  xboot.o
SP_ApplicationCRC                                 sp_driver.o
SP_BootCRC                                        sp_driver.o
SP_EraseApplicationPage                           sp_driver.o
                                                  api.o
SP_EraseApplicationSection                        sp_driver.o
                                                  xboot.o
SP_EraseBootPage                                  sp_driver.o
SP_EraseFlashBuffer                               sp_driver.o
SP_EraseUserSignatureRow                          sp_driver.o
                                                  api.o
                                                  xboot.o
SP_EraseWriteApplicationPage                      sp_driver.o
                                                  flash.o
SP_EraseWriteBootPage                             sp_driver.o
SP_LoadFlashPage                                  sp_driver.o
                                                  api.o
                                                  flash.o
                                                  xboot.o
SP_LoadFlashWord                                  sp_driver.o
                                                  xboot.o
SP_LockSPM                                        sp_driver.o
SP_ReadByte                                       sp_driver.o
                                                  xboot.o
SP_ReadCalibrationByte                            sp_driver.o
                                                  xboot.o
SP_ReadFlashPage                                  sp_driver.o
                                                  xboot.o
SP_ReadFuseByte                                   sp_driver.o
                                                  xboot.o
SP_ReadLockBits                                   sp_driver.o
                                                  xboot.o
SP_ReadUserSignatureByte                          sp_driver.o
                                                  xboot.o
SP_ReadWord                                       sp_driver.o
                                                  xboot.o
SP_WaitForSPM                                     sp_driver.o
                                                  api.o
                                                  flash.o
                                                  xboot.o
SP_WriteApplicationPage                           sp_driver.o
                                                  flash.o
                                                  xboot.o
SP_WriteBootPage                                  sp_driver.o
SP_WriteLockBits                                  sp_driver.o
                                                  xboot.o
SP_WriteUserSignatureRow                          sp_driver.o
                                                  api.o
                                                  xboot.o
WDT_Disable                                       watchdog.o
WDT_EnableAndSetTimeout                           watchdog.o
__bad_interrupt                                   /home/baxelrod/ARM-H/avr8-gnu-toolchain-linux_x86/bin/../lib/gcc/avr/4.6.2/../../../../avr/lib/avrxmega4/crtx64a3.o
__bss_end                                         /home/baxelrod/ARM-H/avr8-gnu-toolchain-linux_x86/bin/../lib/gcc/avr/4.6.2/avrxmega4/libgcc.a(_clear_bss.o)
__bss_start                                       /home/baxelrod/ARM-H/avr8-gnu-toolchain-linux_x86/bin/../lib/gcc/avr/4.6.2/avrxmega4/libgcc.a(_clear_bss.o)
__data_end                                        /home/baxelrod/ARM-H/avr8-gnu-toolchain-linux_x86/bin/../lib/gcc/avr/4.6.2/avrxmega4/libgcc.a(_copy_data.o)
__data_load_start                                 /home/baxelrod/ARM-H/avr8-gnu-toolchain-linux_x86/bin/../lib/gcc/avr/4.6.2/avrxmega4/libgcc.a(_copy_data.o)
__data_start                                      /home/baxelrod/ARM-H/avr8-gnu-toolchain-linux_x86/bin/../lib/gcc/avr/4.6.2/avrxmega4/libgcc.a(_copy_data.o)
__do_clear_bss                                    /home/baxelrod/ARM-H/avr8-gnu-toolchain-linux_x86/bin/../lib/gcc/avr/4.6.2/avrxmega4/libgcc.a(_clear_bss.o)
                                                  api.o
                                                  watchdog.o
                                                  fifo.o
                                                  i2c.o
                                                  uart.o
                                                  eeprom_driver.o
                                                  flash.o
                                                  xboot.o
__do_copy_data                                    /home/baxelrod/ARM-H/avr8-gnu-toolchain-linux_x86/bin/../lib/gcc/avr/4.6.2/avrxmega4/libgcc.a(_copy_data.o)
                                                  api.o
                                                  watchdog.o
                                                  fifo.o
                                                  i2c.o
                                                  uart.o
                                                  eeprom_driver.o
                                                  flash.o
                                                  xboot.o
__heap_end                                        /home/baxelrod/ARM-H/avr8-gnu-toolchain-linux_x86/bin/../lib/gcc/avr/4.6.2/../../../../avr/lib/avrxmega4/crtx64a3.o
__init                                            /home/baxelrod/ARM-H/avr8-gnu-toolchain-linux_x86/bin/../lib/gcc/avr/4.6.2/../../../../avr/lib/avrxmega4/crtx64a3.o
__stack                                           /home/baxelrod/ARM-H/avr8-gnu-toolchain-linux_x86/bin/../lib/gcc/avr/4.6.2/../../../../avr/lib/avrxmega4/crtx64a3.o
__vector_1                                        /home/baxelrod/ARM-H/avr8-gnu-toolchain-linux_x86/bin/../lib/gcc/avr/4.6.2/../../../../avr/lib/avrxmega4/crtx64a3.o
__vector_10                                       /home/baxelrod/ARM-H/avr8-gnu-toolchain-linux_x86/bin/../lib/gcc/avr/4.6.2/../../../../avr/lib/avrxmega4/crtx64a3.o
__vector_100                                      /home/baxelrod/ARM-H/avr8-gnu-toolchain-linux_x86/bin/../lib/gcc/avr/4.6.2/../../../../avr/lib/avrxmega4/crtx64a3.o
__vector_101                                      /home/baxelrod/ARM-H/avr8-gnu-toolchain-linux_x86/bin/../lib/gcc/avr/4.6.2/../../../../avr/lib/avrxmega4/crtx64a3.o
__vector_102                                      /home/baxelrod/ARM-H/avr8-gnu-toolchain-linux_x86/bin/../lib/gcc/avr/4.6.2/../../../../avr/lib/avrxmega4/crtx64a3.o
__vector_103                                      /home/baxelrod/ARM-H/avr8-gnu-toolchain-linux_x86/bin/../lib/gcc/avr/4.6.2/../../../../avr/lib/avrxmega4/crtx64a3.o
__vector_104                                      /home/baxelrod/ARM-H/avr8-gnu-toolchain-linux_x86/bin/../lib/gcc/avr/4.6.2/../../../../avr/lib/avrxmega4/crtx64a3.o
__vector_105                                      /home/baxelrod/ARM-H/avr8-gnu-toolchain-linux_x86/bin/../lib/gcc/avr/4.6.2/../../../../avr/lib/avrxmega4/crtx64a3.o
__vector_106                                      /home/baxelrod/ARM-H/avr8-gnu-toolchain-linux_x86/bin/../lib/gcc/avr/4.6.2/../../../../avr/lib/avrxmega4/crtx64a3.o
__vector_107                                      /home/baxelrod/ARM-H/avr8-gnu-toolchain-linux_x86/bin/../lib/gcc/avr/4.6.2/../../../../avr/lib/avrxmega4/crtx64a3.o
__vector_108                                      /home/baxelrod/ARM-H/avr8-gnu-toolchain-linux_x86/bin/../lib/gcc/avr/4.6.2/../../../../avr/lib/avrxmega4/crtx64a3.o
__vector_109                                      /home/baxelrod/ARM-H/avr8-gnu-toolchain-linux_x86/bin/../lib/gcc/avr/4.6.2/../../../../avr/lib/avrxmega4/crtx64a3.o
__vector_11                                       /home/baxelrod/ARM-H/avr8-gnu-toolchain-linux_x86/bin/../lib/gcc/avr/4.6.2/../../../../avr/lib/avrxmega4/crtx64a3.o
__vector_110                                      /home/baxelrod/ARM-H/avr8-gnu-toolchain-linux_x86/bin/../lib/gcc/avr/4.6.2/../../../../avr/lib/avrxmega4/crtx64a3.o
__vector_111                                      /home/baxelrod/ARM-H/avr8-gnu-toolchain-linux_x86/bin/../lib/gcc/avr/4.6.2/../../../../avr/lib/avrxmega4/crtx64a3.o
__vector_112                                      /home/baxelrod/ARM-H/avr8-gnu-toolchain-linux_x86/bin/../lib/gcc/avr/4.6.2/../../../../avr/lib/avrxmega4/crtx64a3.o
__vector_113                                      /home/baxelrod/ARM-H/avr8-gnu-toolchain-linux_x86/bin/../lib/gcc/avr/4.6.2/../../../../avr/lib/avrxmega4/crtx64a3.o
__vector_114                                      /home/baxelrod/ARM-H/avr8-gnu-toolchain-linux_x86/bin/../lib/gcc/avr/4.6.2/../../../../avr/lib/avrxmega4/crtx64a3.o
__vector_115                                      /home/baxelrod/ARM-H/avr8-gnu-toolchain-linux_x86/bin/../lib/gcc/avr/4.6.2/../../../../avr/lib/avrxmega4/crtx64a3.o
__vector_116                                      /home/baxelrod/ARM-H/avr8-gnu-toolchain-linux_x86/bin/../lib/gcc/avr/4.6.2/../../../../avr/lib/avrxmega4/crtx64a3.o
__vector_117                                      /home/baxelrod/ARM-H/avr8-gnu-toolchain-linux_x86/bin/../lib/gcc/avr/4.6.2/../../../../avr/lib/avrxmega4/crtx64a3.o
__vector_118                                      /home/baxelrod/ARM-H/avr8-gnu-toolchain-linux_x86/bin/../lib/gcc/avr/4.6.2/../../../../avr/lib/avrxmega4/crtx64a3.o
__vector_119                                      /home/baxelrod/ARM-H/avr8-gnu-toolchain-linux_x86/bin/../lib/gcc/avr/4.6.2/../../../../avr/lib/avrxmega4/crtx64a3.o
__vector_12                                       /home/baxelrod/ARM-H/avr8-gnu-toolchain-linux_x86/bin/../lib/gcc/avr/4.6.2/../../../../avr/lib/avrxmega4/crtx64a3.o
__vector_120                                      /home/baxelrod/ARM-H/avr8-gnu-toolchain-linux_x86/bin/../lib/gcc/avr/4.6.2/../../../../avr/lib/avrxmega4/crtx64a3.o
__vector_121                                      /home/baxelrod/ARM-H/avr8-gnu-toolchain-linux_x86/bin/../lib/gcc/avr/4.6.2/../../../../avr/lib/avrxmega4/crtx64a3.o
__vector_13                                       /home/baxelrod/ARM-H/avr8-gnu-toolchain-linux_x86/bin/../lib/gcc/avr/4.6.2/../../../../avr/lib/avrxmega4/crtx64a3.o
__vector_14                                       /home/baxelrod/ARM-H/avr8-gnu-toolchain-linux_x86/bin/../lib/gcc/avr/4.6.2/../../../../avr/lib/avrxmega4/crtx64a3.o
__vector_15                                       /home/baxelrod/ARM-H/avr8-gnu-toolchain-linux_x86/bin/../lib/gcc/avr/4.6.2/../../../../avr/lib/avrxmega4/crtx64a3.o
__vector_16                                       /home/baxelrod/ARM-H/avr8-gnu-toolchain-linux_x86/bin/../lib/gcc/avr/4.6.2/../../../../avr/lib/avrxmega4/crtx64a3.o
__vector_17                                       /home/baxelrod/ARM-H/avr8-gnu-toolchain-linux_x86/bin/../lib/gcc/avr/4.6.2/../../../../avr/lib/avrxmega4/crtx64a3.o
__vector_18                                       /home/baxelrod/ARM-H/avr8-gnu-toolchain-linux_x86/bin/../lib/gcc/avr/4.6.2/../../../../avr/lib/avrxmega4/crtx64a3.o
__vector_19                                       /home/baxelrod/ARM-H/avr8-gnu-toolchain-linux_x86/bin/../lib/gcc/avr/4.6.2/../../../../avr/lib/avrxmega4/crtx64a3.o
__vector_2                                        /home/baxelrod/ARM-H/avr8-gnu-toolchain-linux_x86/bin/../lib/gcc/avr/4.6.2/../../../../avr/lib/avrxmega4/crtx64a3.o
__vector_20                                       /home/baxelrod/ARM-H/avr8-gnu-toolchain-linux_x86/bin/../lib/gcc/avr/4.6.2/../../../../avr/lib/avrxmega4/crtx64a3.o
__vector_21                                       /home/baxelrod/ARM-H/avr8-gnu-toolchain-linux_x86/bin/../lib/gcc/avr/4.6.2/../../../../avr/lib/avrxmega4/crtx64a3.o
__vector_22                                       /home/baxelrod/ARM-H/avr8-gnu-toolchain-linux_x86/bin/../lib/gcc/avr/4.6.2/../../../../avr/lib/avrxmega4/crtx64a3.o
__vector_23                                       /home/baxelrod/ARM-H/avr8-gnu-toolchain-linux_x86/bin/../lib/gcc/avr/4.6.2/../../../../avr/lib/avrxmega4/crtx64a3.o
__vector_24                                       /home/baxelrod/ARM-H/avr8-gnu-toolchain-linux_x86/bin/../lib/gcc/avr/4.6.2/../../../../avr/lib/avrxmega4/crtx64a3.o
__vector_25                                       /home/baxelrod/ARM-H/avr8-gnu-toolchain-linux_x86/bin/../lib/gcc/avr/4.6.2/../../../../avr/lib/avrxmega4/crtx64a3.o
__vector_26                                       /home/baxelrod/ARM-H/avr8-gnu-toolchain-linux_x86/bin/../lib/gcc/avr/4.6.2/../../../../avr/lib/avrxmega4/crtx64a3.o
__vector_27                                       /home/baxelrod/ARM-H/avr8-gnu-toolchain-linux_x86/bin/../lib/gcc/avr/4.6.2/../../../../avr/lib/avrxmega4/crtx64a3.o
__vector_28                                       /home/baxelrod/ARM-H/avr8-gnu-toolchain-linux_x86/bin/../lib/gcc/avr/4.6.2/../../../../avr/lib/avrxmega4/crtx64a3.o
__vector_29                                       /home/baxelrod/ARM-H/avr8-gnu-toolchain-linux_x86/bin/../lib/gcc/avr/4.6.2/../../../../avr/lib/avrxmega4/crtx64a3.o
__vector_3                                        /home/baxelrod/ARM-H/avr8-gnu-toolchain-linux_x86/bin/../lib/gcc/avr/4.6.2/../../../../avr/lib/avrxmega4/crtx64a3.o
__vector_30                                       /home/baxelrod/ARM-H/avr8-gnu-toolchain-linux_x86/bin/../lib/gcc/avr/4.6.2/../../../../avr/lib/avrxmega4/crtx64a3.o
__vector_31                                       /home/baxelrod/ARM-H/avr8-gnu-toolchain-linux_x86/bin/../lib/gcc/avr/4.6.2/../../../../avr/lib/avrxmega4/crtx64a3.o
__vector_32                                       /home/baxelrod/ARM-H/avr8-gnu-toolchain-linux_x86/bin/../lib/gcc/avr/4.6.2/../../../../avr/lib/avrxmega4/crtx64a3.o
__vector_33                                       /home/baxelrod/ARM-H/avr8-gnu-toolchain-linux_x86/bin/../lib/gcc/avr/4.6.2/../../../../avr/lib/avrxmega4/crtx64a3.o
__vector_34                                       /home/baxelrod/ARM-H/avr8-gnu-toolchain-linux_x86/bin/../lib/gcc/avr/4.6.2/../../../../avr/lib/avrxmega4/crtx64a3.o
__vector_35                                       /home/baxelrod/ARM-H/avr8-gnu-toolchain-linux_x86/bin/../lib/gcc/avr/4.6.2/../../../../avr/lib/avrxmega4/crtx64a3.o
__vector_36                                       /home/baxelrod/ARM-H/avr8-gnu-toolchain-linux_x86/bin/../lib/gcc/avr/4.6.2/../../../../avr/lib/avrxmega4/crtx64a3.o
__vector_37                                       /home/baxelrod/ARM-H/avr8-gnu-toolchain-linux_x86/bin/../lib/gcc/avr/4.6.2/../../../../avr/lib/avrxmega4/crtx64a3.o
__vector_38                                       /home/baxelrod/ARM-H/avr8-gnu-toolchain-linux_x86/bin/../lib/gcc/avr/4.6.2/../../../../avr/lib/avrxmega4/crtx64a3.o
__vector_39                                       /home/baxelrod/ARM-H/avr8-gnu-toolchain-linux_x86/bin/../lib/gcc/avr/4.6.2/../../../../avr/lib/avrxmega4/crtx64a3.o
__vector_4                                        /home/baxelrod/ARM-H/avr8-gnu-toolchain-linux_x86/bin/../lib/gcc/avr/4.6.2/../../../../avr/lib/avrxmega4/crtx64a3.o
__vector_40                                       /home/baxelrod/ARM-H/avr8-gnu-toolchain-linux_x86/bin/../lib/gcc/avr/4.6.2/../../../../avr/lib/avrxmega4/crtx64a3.o
__vector_41                                       /home/baxelrod/ARM-H/avr8-gnu-toolchain-linux_x86/bin/../lib/gcc/avr/4.6.2/../../../../avr/lib/avrxmega4/crtx64a3.o
__vector_42                                       /home/baxelrod/ARM-H/avr8-gnu-toolchain-linux_x86/bin/../lib/gcc/avr/4.6.2/../../../../avr/lib/avrxmega4/crtx64a3.o
__vector_43                                       /home/baxelrod/ARM-H/avr8-gnu-toolchain-linux_x86/bin/../lib/gcc/avr/4.6.2/../../../../avr/lib/avrxmega4/crtx64a3.o
__vector_44                                       /home/baxelrod/ARM-H/avr8-gnu-toolchain-linux_x86/bin/../lib/gcc/avr/4.6.2/../../../../avr/lib/avrxmega4/crtx64a3.o
__vector_45                                       /home/baxelrod/ARM-H/avr8-gnu-toolchain-linux_x86/bin/../lib/gcc/avr/4.6.2/../../../../avr/lib/avrxmega4/crtx64a3.o
__vector_46                                       /home/baxelrod/ARM-H/avr8-gnu-toolchain-linux_x86/bin/../lib/gcc/avr/4.6.2/../../../../avr/lib/avrxmega4/crtx64a3.o
__vector_47                                       /home/baxelrod/ARM-H/avr8-gnu-toolchain-linux_x86/bin/../lib/gcc/avr/4.6.2/../../../../avr/lib/avrxmega4/crtx64a3.o
__vector_48                                       /home/baxelrod/ARM-H/avr8-gnu-toolchain-linux_x86/bin/../lib/gcc/avr/4.6.2/../../../../avr/lib/avrxmega4/crtx64a3.o
__vector_49                                       /home/baxelrod/ARM-H/avr8-gnu-toolchain-linux_x86/bin/../lib/gcc/avr/4.6.2/../../../../avr/lib/avrxmega4/crtx64a3.o
__vector_5                                        /home/baxelrod/ARM-H/avr8-gnu-toolchain-linux_x86/bin/../lib/gcc/avr/4.6.2/../../../../avr/lib/avrxmega4/crtx64a3.o
__vector_50                                       /home/baxelrod/ARM-H/avr8-gnu-toolchain-linux_x86/bin/../lib/gcc/avr/4.6.2/../../../../avr/lib/avrxmega4/crtx64a3.o
__vector_51                                       /home/baxelrod/ARM-H/avr8-gnu-toolchain-linux_x86/bin/../lib/gcc/avr/4.6.2/../../../../avr/lib/avrxmega4/crtx64a3.o
__vector_52                                       /home/baxelrod/ARM-H/avr8-gnu-toolchain-linux_x86/bin/../lib/gcc/avr/4.6.2/../../../../avr/lib/avrxmega4/crtx64a3.o
__vector_53                                       /home/baxelrod/ARM-H/avr8-gnu-toolchain-linux_x86/bin/../lib/gcc/avr/4.6.2/../../../../avr/lib/avrxmega4/crtx64a3.o
__vector_54                                       /home/baxelrod/ARM-H/avr8-gnu-toolchain-linux_x86/bin/../lib/gcc/avr/4.6.2/../../../../avr/lib/avrxmega4/crtx64a3.o
__vector_55                                       /home/baxelrod/ARM-H/avr8-gnu-toolchain-linux_x86/bin/../lib/gcc/avr/4.6.2/../../../../avr/lib/avrxmega4/crtx64a3.o
__vector_56                                       /home/baxelrod/ARM-H/avr8-gnu-toolchain-linux_x86/bin/../lib/gcc/avr/4.6.2/../../../../avr/lib/avrxmega4/crtx64a3.o
__vector_57                                       /home/baxelrod/ARM-H/avr8-gnu-toolchain-linux_x86/bin/../lib/gcc/avr/4.6.2/../../../../avr/lib/avrxmega4/crtx64a3.o
__vector_58                                       /home/baxelrod/ARM-H/avr8-gnu-toolchain-linux_x86/bin/../lib/gcc/avr/4.6.2/../../../../avr/lib/avrxmega4/crtx64a3.o
__vector_59                                       /home/baxelrod/ARM-H/avr8-gnu-toolchain-linux_x86/bin/../lib/gcc/avr/4.6.2/../../../../avr/lib/avrxmega4/crtx64a3.o
__vector_6                                        /home/baxelrod/ARM-H/avr8-gnu-toolchain-linux_x86/bin/../lib/gcc/avr/4.6.2/../../../../avr/lib/avrxmega4/crtx64a3.o
__vector_60                                       /home/baxelrod/ARM-H/avr8-gnu-toolchain-linux_x86/bin/../lib/gcc/avr/4.6.2/../../../../avr/lib/avrxmega4/crtx64a3.o
__vector_61                                       /home/baxelrod/ARM-H/avr8-gnu-toolchain-linux_x86/bin/../lib/gcc/avr/4.6.2/../../../../avr/lib/avrxmega4/crtx64a3.o
__vector_62                                       /home/baxelrod/ARM-H/avr8-gnu-toolchain-linux_x86/bin/../lib/gcc/avr/4.6.2/../../../../avr/lib/avrxmega4/crtx64a3.o
__vector_63                                       /home/baxelrod/ARM-H/avr8-gnu-toolchain-linux_x86/bin/../lib/gcc/avr/4.6.2/../../../../avr/lib/avrxmega4/crtx64a3.o
__vector_64                                       /home/baxelrod/ARM-H/avr8-gnu-toolchain-linux_x86/bin/../lib/gcc/avr/4.6.2/../../../../avr/lib/avrxmega4/crtx64a3.o
__vector_65                                       /home/baxelrod/ARM-H/avr8-gnu-toolchain-linux_x86/bin/../lib/gcc/avr/4.6.2/../../../../avr/lib/avrxmega4/crtx64a3.o
__vector_66                                       /home/baxelrod/ARM-H/avr8-gnu-toolchain-linux_x86/bin/../lib/gcc/avr/4.6.2/../../../../avr/lib/avrxmega4/crtx64a3.o
__vector_67                                       /home/baxelrod/ARM-H/avr8-gnu-toolchain-linux_x86/bin/../lib/gcc/avr/4.6.2/../../../../avr/lib/avrxmega4/crtx64a3.o
__vector_68                                       /home/baxelrod/ARM-H/avr8-gnu-toolchain-linux_x86/bin/../lib/gcc/avr/4.6.2/../../../../avr/lib/avrxmega4/crtx64a3.o
__vector_69                                       /home/baxelrod/ARM-H/avr8-gnu-toolchain-linux_x86/bin/../lib/gcc/avr/4.6.2/../../../../avr/lib/avrxmega4/crtx64a3.o
__vector_7                                        /home/baxelrod/ARM-H/avr8-gnu-toolchain-linux_x86/bin/../lib/gcc/avr/4.6.2/../../../../avr/lib/avrxmega4/crtx64a3.o
__vector_70                                       /home/baxelrod/ARM-H/avr8-gnu-toolchain-linux_x86/bin/../lib/gcc/avr/4.6.2/../../../../avr/lib/avrxmega4/crtx64a3.o
__vector_71                                       /home/baxelrod/ARM-H/avr8-gnu-toolchain-linux_x86/bin/../lib/gcc/avr/4.6.2/../../../../avr/lib/avrxmega4/crtx64a3.o
__vector_72                                       /home/baxelrod/ARM-H/avr8-gnu-toolchain-linux_x86/bin/../lib/gcc/avr/4.6.2/../../../../avr/lib/avrxmega4/crtx64a3.o
__vector_73                                       /home/baxelrod/ARM-H/avr8-gnu-toolchain-linux_x86/bin/../lib/gcc/avr/4.6.2/../../../../avr/lib/avrxmega4/crtx64a3.o
__vector_74                                       /home/baxelrod/ARM-H/avr8-gnu-toolchain-linux_x86/bin/../lib/gcc/avr/4.6.2/../../../../avr/lib/avrxmega4/crtx64a3.o
__vector_75                                       /home/baxelrod/ARM-H/avr8-gnu-toolchain-linux_x86/bin/../lib/gcc/avr/4.6.2/../../../../avr/lib/avrxmega4/crtx64a3.o
__vector_76                                       /home/baxelrod/ARM-H/avr8-gnu-toolchain-linux_x86/bin/../lib/gcc/avr/4.6.2/../../../../avr/lib/avrxmega4/crtx64a3.o
__vector_77                                       /home/baxelrod/ARM-H/avr8-gnu-toolchain-linux_x86/bin/../lib/gcc/avr/4.6.2/../../../../avr/lib/avrxmega4/crtx64a3.o
__vector_78                                       /home/baxelrod/ARM-H/avr8-gnu-toolchain-linux_x86/bin/../lib/gcc/avr/4.6.2/../../../../avr/lib/avrxmega4/crtx64a3.o
__vector_79                                       /home/baxelrod/ARM-H/avr8-gnu-toolchain-linux_x86/bin/../lib/gcc/avr/4.6.2/../../../../avr/lib/avrxmega4/crtx64a3.o
__vector_8                                        /home/baxelrod/ARM-H/avr8-gnu-toolchain-linux_x86/bin/../lib/gcc/avr/4.6.2/../../../../avr/lib/avrxmega4/crtx64a3.o
__vector_80                                       /home/baxelrod/ARM-H/avr8-gnu-toolchain-linux_x86/bin/../lib/gcc/avr/4.6.2/../../../../avr/lib/avrxmega4/crtx64a3.o
__vector_81                                       /home/baxelrod/ARM-H/avr8-gnu-toolchain-linux_x86/bin/../lib/gcc/avr/4.6.2/../../../../avr/lib/avrxmega4/crtx64a3.o
__vector_82                                       /home/baxelrod/ARM-H/avr8-gnu-toolchain-linux_x86/bin/../lib/gcc/avr/4.6.2/../../../../avr/lib/avrxmega4/crtx64a3.o
__vector_83                                       /home/baxelrod/ARM-H/avr8-gnu-toolchain-linux_x86/bin/../lib/gcc/avr/4.6.2/../../../../avr/lib/avrxmega4/crtx64a3.o
__vector_84                                       /home/baxelrod/ARM-H/avr8-gnu-toolchain-linux_x86/bin/../lib/gcc/avr/4.6.2/../../../../avr/lib/avrxmega4/crtx64a3.o
__vector_85                                       /home/baxelrod/ARM-H/avr8-gnu-toolchain-linux_x86/bin/../lib/gcc/avr/4.6.2/../../../../avr/lib/avrxmega4/crtx64a3.o
__vector_86                                       /home/baxelrod/ARM-H/avr8-gnu-toolchain-linux_x86/bin/../lib/gcc/avr/4.6.2/../../../../avr/lib/avrxmega4/crtx64a3.o
__vector_87                                       /home/baxelrod/ARM-H/avr8-gnu-toolchain-linux_x86/bin/../lib/gcc/avr/4.6.2/../../../../avr/lib/avrxmega4/crtx64a3.o
__vector_88                                       /home/baxelrod/ARM-H/avr8-gnu-toolchain-linux_x86/bin/../lib/gcc/avr/4.6.2/../../../../avr/lib/avrxmega4/crtx64a3.o
__vector_89                                       /home/baxelrod/ARM-H/avr8-gnu-toolchain-linux_x86/bin/../lib/gcc/avr/4.6.2/../../../../avr/lib/avrxmega4/crtx64a3.o
__vector_9                                        /home/baxelrod/ARM-H/avr8-gnu-toolchain-linux_x86/bin/../lib/gcc/avr/4.6.2/../../../../avr/lib/avrxmega4/crtx64a3.o
__vector_90                                       /home/baxelrod/ARM-H/avr8-gnu-toolchain-linux_x86/bin/../lib/gcc/avr/4.6.2/../../../../avr/lib/avrxmega4/crtx64a3.o
__vector_91                                       /home/baxelrod/ARM-H/avr8-gnu-toolchain-linux_x86/bin/../lib/gcc/avr/4.6.2/../../../../avr/lib/avrxmega4/crtx64a3.o
__vector_92                                       /home/baxelrod/ARM-H/avr8-gnu-toolchain-linux_x86/bin/../lib/gcc/avr/4.6.2/../../../../avr/lib/avrxmega4/crtx64a3.o
__vector_93                                       /home/baxelrod/ARM-H/avr8-gnu-toolchain-linux_x86/bin/../lib/gcc/avr/4.6.2/../../../../avr/lib/avrxmega4/crtx64a3.o
__vector_94                                       /home/baxelrod/ARM-H/avr8-gnu-toolchain-linux_x86/bin/../lib/gcc/avr/4.6.2/../../../../avr/lib/avrxmega4/crtx64a3.o
__vector_95                                       /home/baxelrod/ARM-H/avr8-gnu-toolchain-linux_x86/bin/../lib/gcc/avr/4.6.2/../../../../avr/lib/avrxmega4/crtx64a3.o
__vector_96                                       /home/baxelrod/ARM-H/avr8-gnu-toolchain-linux_x86/bin/../lib/gcc/avr/4.6.2/../../../../avr/lib/avrxmega4/crtx64a3.o
__vector_97                                       /home/baxelrod/ARM-H/avr8-gnu-toolchain-linux_x86/bin/../lib/gcc/avr/4.6.2/../../../../avr/lib/avrxmega4/crtx64a3.o
__vector_98                                       /home/baxelrod/ARM-H/avr8-gnu-toolchain-linux_x86/bin/../lib/gcc/avr/4.6.2/../../../../avr/lib/avrxmega4/crtx64a3.o
__vector_99                                       /home/baxelrod/ARM-H/avr8-gnu-toolchain-linux_x86/bin/../lib/gcc/avr/4.6.2/../../../../avr/lib/avrxmega4/crtx64a3.o
__vector_default                                  /home/baxelrod/ARM-H/avr8-gnu-toolchain-linux_x86/bin/../lib/gcc/avr/4.6.2/../../../../avr/lib/avrxmega4/crtx64a3.o
__vectors                                         /home/baxelrod/ARM-H/avr8-gnu-toolchain-linux_x86/bin/../lib/gcc/avr/4.6.2/../../../../avr/lib/avrxmega4/crtx64a3.o
_exit                                             /home/baxelrod/ARM-H/avr8-gnu-toolchain-linux_x86/bin/../lib/gcc/avr/4.6.2/avrxmega4/libgcc.a(_exit.o)
api_jump_table                                    api.o
buffer                                            xboot.o
clear_buffer                                      xboot.o
comm_mode                                         xboot.o
crc16_block                                       xboot.o
exit                                              /home/baxelrod/ARM-H/avr8-gnu-toolchain-linux_x86/bin/../lib/gcc/avr/4.6.2/avrxmega4/libgcc.a(_exit.o)
                                                  /home/baxelrod/ARM-H/avr8-gnu-toolchain-linux_x86/bin/../lib/gcc/avr/4.6.2/../../../../avr/lib/avrxmega4/crtx64a3.o
fifo_cur_char                                     fifo.o
fifo_deinit                                       fifo.o
fifo_init                                         fifo.o
fifo_send_char                                    fifo.o
fifo_send_char_blocking                           fifo.o
flush_buffer                                      eeprom_driver.o
get_2bytes                                        xboot.o
get_char                                          xboot.o
i2c_deinit                                        i2c.o
i2c_init                                          i2c.o
install_firmware                                  xboot.o
main                                              xboot.o
                                                  /home/baxelrod/ARM-H/avr8-gnu-toolchain-linux_x86/bin/../lib/gcc/avr/4.6.2/../../../../avr/lib/avrxmega4/crtx64a3.o
protected                                         xboot.o
send_char                                         xboot.o
uart_deinit                                       uart.o
                                                  xboot.o
uart_init                                         uart.o
                                                  xboot.o
wait_for_nvm                                      eeprom_driver.o
xboot_app_temp_erase                              api.o
                                                  xboot.o
xboot_app_temp_write_page                         api.o
xboot_erase_application_page                      api.o
xboot_get_version                                 api.o
xboot_spm_wrapper                                 api.o
xboot_write_application_page                      api.o
xboot_write_user_signature_row                    api.o
